; Function Attrs: mustprogress uwtable
define void @_ZN6duckdb12dlba_encoder10BeginWriteINS_8string_tEEEvRNS_11DlbaEncoderERNS_11WriteStreamERKT_(ptr noundef nonnull align 8 dereferenceable(18520) %0, ptr noundef nonnull align 8 dereferenceable(8) %1, ptr noundef nonnull align 8 dereferenceable(16) %2) local_unnamed_addr #1 {
  %4 = alloca i64, align 8
  call void @llvm.lifetime.start.p0(i64 8, ptr nonnull %4) #26
  %5 = load i32, ptr %2, align 8, !tbaa !3
  %6 = zext i32 %5 to i64
  store i64 %6, ptr %4, align 8, !tbaa !24
  call void @_ZN6duckdb10DbpEncoder10BeginWriteERNS_11WriteStreamERKl(ptr noundef nonnull align 8 dereferenceable(18520) %0, ptr noundef nonnull align 8 dereferenceable(8) %1, ptr noundef nonnull align 8 dereferenceable(8) %4)
  call void @llvm.lifetime.end.p0(i64 8, ptr nonnull %4) #26
  %7 = getelementptr inbounds nuw i8, ptr %0, i64 18512
  %8 = load ptr, ptr %7, align 8, !tbaa !31
  %9 = load i32, ptr %2, align 8, !tbaa !3
  %10 = icmp ult i32 %9, 13
  %11 = getelementptr inbounds nuw i8, ptr %2, i64 4
  %12 = getelementptr inbounds nuw i8, ptr %2, i64 8
  %13 = load ptr, ptr %12, align 8
  %14 = select i1 %10, ptr %11, ptr %13
  %15 = zext i32 %9 to i64
  %16 = load ptr, ptr %8, align 8, !tbaa !19
  %17 = load ptr, ptr %16, align 8
  call void %17(ptr noundef nonnull align 8 dereferenceable(48) %8, ptr noundef %14, i64 noundef %15)
  ret void
}